target datalayout = "e-m:e-p270:32:32-p271:32:32-p272:64:64-i64:64-i128:128-f80:128-n8:16:32:64-S128"
target triple = "x86_64-pc-linux-gnu"

%struct.PsqlScanStateData = type { ptr, ptr, ptr, ptr, ptr, ptr, i32, i8, i8, ptr, ptr, i32, i32, i32, i32, ptr, i32, [4 x i8], i32, ptr, ptr }

; Function Attrs: nounwind uwtable
define dso_local ptr @expr_scanner_get_substring(ptr noundef %0, i32 noundef %1, i32 noundef %2, i1 noundef zeroext %3) #0 {
  %5 = alloca ptr, align 8
  %6 = alloca i32, align 4
  %7 = alloca i32, align 4
  %8 = alloca i8, align 1
  %9 = alloca ptr, align 8
  %10 = alloca ptr, align 8
  %11 = alloca i32, align 4
  store ptr %0, ptr %5, align 8
  store i32 %1, ptr %6, align 4
  store i32 %2, ptr %7, align 4
  %12 = zext i1 %3 to i8
  store i8 %12, ptr %8, align 1
  call void @llvm.lifetime.start.p0(i64 8, ptr %9) #13
  call void @llvm.lifetime.start.p0(i64 8, ptr %10) #13
  %13 = load ptr, ptr %5, align 8
  %14 = getelementptr inbounds nuw %struct.PsqlScanStateData, ptr %13, i32 0, i32 4
  %15 = load ptr, ptr %14, align 8
  %16 = load i32, ptr %6, align 4
  %17 = sext i32 %16 to i64
  %18 = getelementptr inbounds i8, ptr %15, i64 %17
  store ptr %18, ptr %10, align 8
  call void @llvm.lifetime.start.p0(i64 4, ptr %11) #13
  %19 = load i32, ptr %7, align 4
  %20 = load i32, ptr %6, align 4
  %21 = sub i32 %19, %20
  store i32 %21, ptr %11, align 4
  %22 = load i8, ptr %8, align 1, !range !7, !noundef !8
  %23 = trunc i8 %22 to i1
  br i1 %23, label %24, label %54

24:                                               ; preds = %4
  br label %25

25:                                               ; preds = %50, %24
  %26 = load i32, ptr %11, align 4
  %27 = icmp sgt i32 %26, 0
  br i1 %27, label %28, label %48

28:                                               ; preds = %25
  %29 = load ptr, ptr %10, align 8
  %30 = load i32, ptr %11, align 4
  %31 = sub i32 %30, 1
  %32 = sext i32 %31 to i64
  %33 = getelementptr inbounds i8, ptr %29, i64 %32
  %34 = load i8, ptr %33, align 1
  %35 = sext i8 %34 to i32
  %36 = icmp eq i32 %35, 10
  br i1 %36, label %46, label %37

37:                                               ; preds = %28
  %38 = load ptr, ptr %10, align 8
  %39 = load i32, ptr %11, align 4
  %40 = sub i32 %39, 1
  %41 = sext i32 %40 to i64
  %42 = getelementptr inbounds i8, ptr %38, i64 %41
  %43 = load i8, ptr %42, align 1
  %44 = sext i8 %43 to i32
  %45 = icmp eq i32 %44, 13
  br label %46

46:                                               ; preds = %37, %28
  %47 = phi i1 [ true, %28 ], [ %45, %37 ]
  br label %48

48:                                               ; preds = %46, %25
  %49 = phi i1 [ false, %25 ], [ %47, %46 ]
  br i1 %49, label %50, label %53

50:                                               ; preds = %48
  %51 = load i32, ptr %11, align 4
  %52 = add i32 %51, -1
  store i32 %52, ptr %11, align 4
  br label %25, !llvm.loop !19

53:                                               ; preds = %48
  br label %54

54:                                               ; preds = %53, %4
  %55 = load i32, ptr %11, align 4
  %56 = add i32 %55, 1
  %57 = sext i32 %56 to i64
  %58 = call ptr @pg_malloc(i64 noundef %57)
  store ptr %58, ptr %9, align 8
  %59 = load ptr, ptr %9, align 8
  %60 = load ptr, ptr %10, align 8
  %61 = load i32, ptr %11, align 4
  %62 = sext i32 %61 to i64
  call void @llvm.memcpy.p0.p0.i64(ptr align 1 %59, ptr align 1 %60, i64 %62, i1 false)
  %63 = load ptr, ptr %9, align 8
  %64 = load i32, ptr %11, align 4
  %65 = sext i32 %64 to i64
  %66 = getelementptr inbounds i8, ptr %63, i64 %65
  store i8 0, ptr %66, align 1
  %67 = load ptr, ptr %9, align 8
  call void @llvm.lifetime.end.p0(i64 4, ptr %11) #13
  call void @llvm.lifetime.end.p0(i64 8, ptr %10) #13
  call void @llvm.lifetime.end.p0(i64 8, ptr %9) #13
  ret ptr %67
}