; Function Attrs: nounwind uwtable
define dso_local ptr @expr_scanner_get_substring(ptr noundef readonly captures(none) %0, i32 noundef %1, i32 noundef %2, i1 noundef zeroext %3) local_unnamed_addr #0 {
  %5 = getelementptr inbounds nuw i8, ptr %0, i64 32
  %6 = load ptr, ptr %5, align 8
  %7 = sext i32 %1 to i64
  %8 = getelementptr inbounds i8, ptr %6, i64 %7
  %9 = sub i32 %2, %1
  %10 = icmp sgt i32 %9, 0
  %or.cond = and i1 %3, %10
  br i1 %or.cond, label %.preheader, label %.critedge

.preheader:                                       ; preds = %4
  %invariant.gep = getelementptr i8, ptr %8, i64 -1
  %11 = zext nneg i32 %9 to i64
  br label %12

12:                                               ; preds = %.preheader, %.critedge2
  %indvars.iv = phi i64 [ %11, %.preheader ], [ %indvars.iv.next, %.critedge2 ]
  %gep = getelementptr i8, ptr %invariant.gep, i64 %indvars.iv
  %13 = load i8, ptr %gep, align 1
  switch i8 %13, label %.critedge.loopexit.split.loop.exit26 [
    i8 10, label %.critedge2
    i8 13, label %.critedge2
  ]

.critedge2:                                       ; preds = %12, %12
  %indvars.iv.next = add nsw i64 %indvars.iv, -1
  %.old3 = icmp sgt i64 %indvars.iv, 1
  br i1 %.old3, label %12, label %.critedge

.critedge.loopexit.split.loop.exit26:             ; preds = %12
  %14 = trunc nuw nsw i64 %indvars.iv to i32
  br label %.critedge

.critedge:                                        ; preds = %.critedge2, %.critedge.loopexit.split.loop.exit26, %4
  %.0 = phi i32 [ %9, %4 ], [ %14, %.critedge.loopexit.split.loop.exit26 ], [ 0, %.critedge2 ]
  %15 = add i32 %.0, 1
  %16 = sext i32 %15 to i64
  %17 = tail call ptr @pg_malloc(i64 noundef %16) #32
  %18 = sext i32 %.0 to i64
  tail call void @llvm.memcpy.p0.p0.i64(ptr align 1 %17, ptr align 1 %8, i64 %18, i1 false)
  %19 = getelementptr inbounds i8, ptr %17, i64 %18
  store i8 0, ptr %19, align 1
  ret ptr %17
}